(dp1
S'1'
(lp2
(lp3
I0
aI0
aI0
aI0
aI0
aI0
aI0
aI0
aI3
aI3
aI4
aI5
aI5
aI2
aI2
aI2
aa(lp4
I0
aI0
aI0
aI0
aI0
aI0
aI0
aI0
aI3
aI3
aI4
aI5
aI5
aI2
aI2
aI2
aa(lp5
I0
aI0
aI0
aI0
aI0
aI0
aI0
aI0
aI4
aI4
aI5
aI5
aI5
aI1
aI1
aI1
aa(lp6
I0
aI0
aI0
aI0
aI0
aI0
aI0
aI0
aI4
aI4
aI5
aI5
aI5
aI1
aI1
aI1
aa(lp7
I0
aI0
aI0
aI3
aI3
aI5
aI5
aI5
aI5
aI5
aI5
aI5
aI5
aI2
aI2
aI2
aa(lp8
I0
aI0
aI0
aI3
aI3
aI5
aI5
aI5
aI5
aI5
aI5
aI5
aI5
aI2
aI2
aI2
aa(lp9
I5
aI5
aI5
aI5
aI5
aI2
aI1
aI1
aI0
aI0
aI0
aI4
aI4
aI3
aI3
aI3
aa(lp10
I5
aI5
aI5
aI0
aI0
aI0
aI0
aI0
aI4
aI4
aI5
aI5
aI5
aI4
aI4
aI4
aa(lp11
I5
aI5
aI5
aI0
aI0
aI0
aI0
aI0
aI4
aI4
aI5
aI5
aI5
aI4
aI4
aI4
aa(lp12
I0
aI0
aI0
aI0
aI0
aI0
aI0
aI0
aI4
aI4
aI5
aI5
aI5
aI1
aI1
aI1
aa(lp13
I0
aI0
aI0
aI0
aI0
aI0
aI0
aI0
aI4
aI4
aI5
aI5
aI5
aI1
aI1
aI1
aa(lp14
I0
aI0
aI0
aI0
aI0
aI0
aI0
aI0
aI4
aI4
aI5
aI5
aI5
aI3
aI3
aI3
aa(lp15
I0
aI0
aI0
aI0
aI0
aI0
aI0
aI0
aI4
aI4
aI5
aI5
aI5
aI3
aI3
aI3
aa(lp16
I0
aI0
aI0
aI0
aI0
aI0
aI0
aI0
aI4
aI4
aI5
aI5
aI5
aI2
aI2
aI2
aa(lp17
I0
aI0
aI0
aI0
aI0
aI0
aI0
aI0
aI4
aI4
aI5
aI5
aI5
aI2
aI2
aI2
aa(lp18
I0
aI0
aI0
aI0
aI0
aI0
aI0
aI0
aI4
aI4
aI5
aI5
aI5
aI2
aI2
aI2
aa(lp19
I0
aI0
aI0
aI0
aI0
aI0
aI0
aI0
aI4
aI4
aI5
aI5
aI5
aI2
aI2
aI2
aa(lp20
I0
aI0
aI0
aI0
aI0
aI0
aI0
aI0
aI4
aI4
aI5
aI5
aI5
aI1
aI1
aI1
aa(lp21
I0
aI0
aI0
aI0
aI0
aI0
aI0
aI0
aI4
aI4
aI5
aI5
aI5
aI2
aI2
aI2
aa(lp22
I0
aI0
aI0
aI0
aI0
aI0
aI0
aI0
aI4
aI4
aI5
aI5
aI5
aI2
aI2
aI2
aa(lp23
I0
aI0
aI0
aI0
aI0
aI0
aI0
aI0
aI4
aI4
aI5
aI5
aI5
aI3
aI3
aI3
aa(lp24
I0
aI0
aI0
aI0
aI0
aI0
aI0
aI0
aI4
aI4
aI5
aI5
aI5
aI3
aI3
aI3
aasS'3'
(lp25
(lp26
I0
aI0
aI2
aI2
aI2
aI3
aI3
aI3
aI3
aI3
aI3
aI1
aI1
aI1
aI0
aI0
aa(lp27
I0
aI0
aI2
aI2
aI2
aI3
aI3
aI3
aI3
aI3
aI3
aI1
aI1
aI1
aI0
aI0
aa(lp28
I2
aI2
aI3
aI3
aI3
aI3
aI3
aI3
aI3
aI3
aI3
aI3
aI3
aI3
aI0
aI0
aa(lp29
I2
aI2
aI3
aI3
aI3
aI3
aI3
aI3
aI3
aI3
aI3
aI3
aI3
aI3
aI0
aI0
aa(lp30
I0
aI0
aI3
aI3
aI3
aI1
aI1
aI0
aI0
aI2
aI2
aI3
aI3
aI3
aI0
aI0
aa(lp31
I0
aI0
aI3
aI3
aI3
aI1
aI1
aI0
aI0
aI2
aI2
aI3
aI3
aI3
aI0
aI0
aa(lp32
I0
aI0
aI0
aI0
aI0
aI0
aI0
aI0
aI0
aI2
aI2
aI3
aI3
aI3
aI0
aI0
aa(lp33
I0
aI0
aI0
aI0
aI0
aI0
aI0
aI2
aI2
aI3
aI3
aI3
aI3
aI3
aI0
aI0
aa(lp34
I0
aI0
aI0
aI0
aI0
aI0
aI0
aI2
aI2
aI3
aI3
aI3
aI3
aI3
aI0
aI0
aa(lp35
I0
aI0
aI0
aI0
aI0
aI0
aI0
aI3
aI3
aI3
aI3
aI1
aI1
aI1
aI0
aI0
aa(lp36
I0
aI0
aI0
aI0
aI0
aI0
aI0
aI3
aI3
aI3
aI3
aI1
aI1
aI1
aI0
aI0
aa(lp37
I0
aI0
aI0
aI0
aI0
aI0
aI0
aI0
aI0
aI0
aI0
aI3
aI3
aI3
aI3
aI3
aa(lp38
I0
aI0
aI0
aI0
aI0
aI0
aI0
aI0
aI0
aI0
aI0
aI3
aI3
aI3
aI3
aI3
aa(lp39
I0
aI0
aI0
aI0
aI0
aI0
aI0
aI0
aI0
aI0
aI0
aI2
aI2
aI2
aI3
aI3
aa(lp40
I0
aI0
aI0
aI0
aI0
aI0
aI0
aI0
aI0
aI0
aI0
aI2
aI2
aI2
aI3
aI3
aa(lp41
I3
aI3
aI3
aI3
aI3
aI0
aI0
aI0
aI0
aI0
aI0
aI3
aI3
aI3
aI3
aI3
aa(lp42
I3
aI3
aI3
aI3
aI3
aI0
aI0
aI0
aI0
aI0
aI0
aI3
aI3
aI3
aI3
aI3
aa(lp43
I3
aI3
aI3
aI3
aI3
aI0
aI0
aI0
aI0
aI0
aI0
aI3
aI3
aI3
aI3
aI3
aa(lp44
I2
aI2
aI3
aI3
aI3
aI3
aI3
aI3
aI3
aI3
aI3
aI3
aI3
aI3
aI0
aI0
aa(lp45
I2
aI2
aI3
aI3
aI3
aI3
aI3
aI3
aI3
aI3
aI3
aI3
aI3
aI3
aI0
aI0
aa(lp46
I0
aI0
aI0
aI0
aI0
aI3
aI3
aI3
aI3
aI3
aI3
aI0
aI0
aI0
aI0
aI0
aa(lp47
I0
aI0
aI0
aI0
aI0
aI3
aI3
aI3
aI3
aI3
aI3
aI0
aI0
aI0
aI0
aI0
aasS'2'
(lp48
(lp49
I0
aI0
aI0
aI0
aI1
aI6
aI7
aI7
aI7
aI7
aI7
aI6
aI3
aI3
aI0
aI0
aa(lp50
I0
aI0
aI0
aI0
aI1
aI6
aI7
aI7
aI7
aI7
aI7
aI6
aI3
aI3
aI0
aI0
aa(lp51
I2
aI2
aI7
aI7
aI7
aI7
aI7
aI7
aI7
aI7
aI7
aI7
aI6
aI6
aI5
aI5
aa(lp52
I2
aI2
aI7
aI7
aI7
aI7
aI7
aI7
aI7
aI7
aI7
aI7
aI6
aI6
aI5
aI5
aa(lp53
I4
aI4
aI7
aI7
aI6
aI1
aI0
aI0
aI0
aI0
aI1
aI6
aI7
aI7
aI5
aI5
aa(lp54
I4
aI4
aI7
aI7
aI6
aI1
aI0
aI0
aI0
aI0
aI1
aI6
aI7
aI7
aI5
aI5
aa(lp55
I7
aI7
aI7
aI7
aI5
aI0
aI0
aI0
aI0
aI0
aI0
aI4
aI7
aI7
aI6
aI6
aa(lp56
I0
aI0
aI0
aI0
aI0
aI0
aI0
aI0
aI0
aI0
aI1
aI6
aI7
aI7
aI5
aI5
aa(lp57
I0
aI0
aI0
aI0
aI0
aI0
aI0
aI0
aI0
aI0
aI1
aI6
aI7
aI7
aI5
aI5
aa(lp58
I0
aI0
aI0
aI0
aI0
aI0
aI0
aI0
aI1
aI6
aI7
aI7
aI7
aI7
aI4
aI4
aa(lp59
I0
aI0
aI0
aI0
aI0
aI0
aI0
aI0
aI1
aI6
aI7
aI7
aI7
aI7
aI4
aI4
aa(lp60
I0
aI0
aI0
aI0
aI0
aI0
aI1
aI6
aI7
aI7
aI7
aI6
aI4
aI4
aI0
aI0
aa(lp61
I0
aI0
aI0
aI0
aI0
aI0
aI1
aI6
aI7
aI7
aI7
aI6
aI4
aI4
aI0
aI0
aa(lp62
I0
aI0
aI0
aI0
aI0
aI5
aI7
aI7
aI7
aI7
aI6
aI1
aI0
aI0
aI0
aI0
aa(lp63
I0
aI0
aI0
aI0
aI0
aI5
aI7
aI7
aI7
aI7
aI6
aI1
aI0
aI0
aI0
aI0
aa(lp64
I0
aI0
aI0
aI0
aI1
aI6
aI7
aI7
aI6
aI1
aI0
aI0
aI0
aI0
aI0
aI0
aa(lp65
I0
aI0
aI0
aI0
aI1
aI6
aI7
aI7
aI6
aI1
aI0
aI0
aI0
aI0
aI0
aI0
aa(lp66
I2
aI2
aI7
aI7
aI7
aI7
aI7
aI2
aI0
aI0
aI0
aI0
aI0
aI0
aI0
aI0
aa(lp67
I0
aI0
aI6
aI6
aI7
aI7
aI7
aI7
aI7
aI7
aI7
aI7
aI7
aI7
aI6
aI6
aa(lp68
I0
aI0
aI6
aI6
aI7
aI7
aI7
aI7
aI7
aI7
aI7
aI7
aI7
aI7
aI6
aI6
aa(lp69
I5
aI5
aI7
aI7
aI7
aI7
aI7
aI7
aI7
aI7
aI7
aI7
aI7
aI7
aI6
aI6
aa(lp70
I5
aI5
aI7
aI7
aI7
aI7
aI7
aI7
aI7
aI7
aI7
aI7
aI7
aI7
aI6
aI6
aasS'5'
(lp71
(lp72
I0
aI0
aI4
aI4
aI4
aI4
aI4
aI4
aI4
aI4
aI4
aI4
aI4
aI4
aI4
aI4
aa(lp73
I0
aI0
aI4
aI4
aI4
aI4
aI4
aI4
aI4
aI4
aI4
aI4
aI4
aI4
aI4
aI4
aa(lp74
I0
aI0
aI4
aI4
aI4
aI4
aI4
aI4
aI4
aI4
aI4
aI4
aI4
aI4
aI3
aI3
aa(lp75
I0
aI0
aI4
aI4
aI4
aI4
aI4
aI4
aI4
aI4
aI4
aI4
aI4
aI4
aI3
aI3
aa(lp76
I0
aI0
aI1
aI1
aI1
aI4
aI4
aI0
aI0
aI0
aI0
aI0
aI0
aI0
aI0
aI0
aa(lp77
I0
aI0
aI1
aI1
aI1
aI4
aI4
aI0
aI0
aI0
aI0
aI0
aI0
aI0
aI0
aI0
aa(lp78
I1
aI1
aI4
aI4
aI4
aI4
aI4
aI0
aI0
aI0
aI0
aI0
aI0
aI0
aI0
aI0
aa(lp79
I0
aI0
aI4
aI4
aI4
aI4
aI4
aI4
aI4
aI4
aI4
aI4
aI4
aI4
aI0
aI0
aa(lp80
I0
aI0
aI4
aI4
aI4
aI4
aI4
aI4
aI4
aI4
aI4
aI4
aI4
aI4
aI0
aI0
aa(lp81
I4
aI4
aI4
aI4
aI4
aI4
aI4
aI4
aI4
aI4
aI4
aI4
aI4
aI4
aI4
aI4
aa(lp82
I4
aI4
aI4
aI4
aI4
aI4
aI4
aI4
aI4
aI4
aI4
aI4
aI4
aI4
aI4
aI4
aa(lp83
I2
aI2
aI3
aI3
aI3
aI0
aI0
aI0
aI0
aI0
aI0
aI4
aI4
aI4
aI4
aI4
aa(lp84
I2
aI2
aI3
aI3
aI3
aI0
aI0
aI0
aI0
aI0
aI0
aI4
aI4
aI4
aI4
aI4
aa(lp85
I0
aI0
aI0
aI0
aI0
aI0
aI0
aI0
aI0
aI0
aI0
aI2
aI2
aI2
aI4
aI4
aa(lp86
I0
aI0
aI0
aI0
aI0
aI0
aI0
aI0
aI0
aI0
aI0
aI2
aI2
aI2
aI4
aI4
aa(lp87
I4
aI4
aI1
aI1
aI1
aI0
aI0
aI0
aI0
aI0
aI0
aI3
aI3
aI3
aI4
aI4
aa(lp88
I4
aI4
aI1
aI1
aI1
aI0
aI0
aI0
aI0
aI0
aI0
aI3
aI3
aI3
aI4
aI4
aa(lp89
I3
aI3
aI4
aI4
aI4
aI2
aI2
aI0
aI0
aI0
aI0
aI4
aI4
aI4
aI4
aI4
aa(lp90
I1
aI1
aI4
aI4
aI4
aI4
aI4
aI4
aI4
aI4
aI4
aI4
aI4
aI4
aI3
aI3
aa(lp91
I1
aI1
aI4
aI4
aI4
aI4
aI4
aI4
aI4
aI4
aI4
aI4
aI4
aI4
aI3
aI3
aa(lp92
I0
aI0
aI1
aI1
aI1
aI4
aI4
aI4
aI4
aI4
aI4
aI2
aI2
aI2
aI0
aI0
aa(lp93
I0
aI0
aI1
aI1
aI1
aI4
aI4
aI4
aI4
aI4
aI4
aI2
aI2
aI2
aI0
aI0
aasS'4'
(lp94
(lp95
I0
aI0
aI0
aI0
aI0
aI0
aI0
aI0
aI1
aI4
aI4
aI4
aI2
aI2
aI0
aI0
aa(lp96
I0
aI0
aI0
aI0
aI0
aI0
aI0
aI0
aI1
aI4
aI4
aI4
aI2
aI2
aI0
aI0
aa(lp97
I0
aI0
aI0
aI0
aI0
aI0
aI0
aI1
aI2
aI4
aI4
aI4
aI2
aI2
aI0
aI0
aa(lp98
I0
aI0
aI0
aI0
aI0
aI0
aI0
aI1
aI2
aI4
aI4
aI4
aI2
aI2
aI0
aI0
aa(lp99
I0
aI0
aI0
aI0
aI0
aI0
aI1
aI4
aI4
aI4
aI4
aI4
aI1
aI1
aI0
aI0
aa(lp100
I0
aI0
aI0
aI0
aI0
aI0
aI1
aI4
aI4
aI4
aI4
aI4
aI1
aI1
aI0
aI0
aa(lp101
I0
aI0
aI0
aI0
aI0
aI0
aI1
aI4
aI4
aI4
aI4
aI3
aI2
aI2
aI0
aI0
aa(lp102
I0
aI0
aI0
aI0
aI1
aI4
aI3
aI0
aI1
aI4
aI4
aI4
aI1
aI1
aI0
aI0
aa(lp103
I0
aI0
aI0
aI0
aI1
aI4
aI3
aI0
aI1
aI4
aI4
aI4
aI1
aI1
aI0
aI0
aa(lp104
I0
aI0
aI2
aI2
aI3
aI0
aI0
aI0
aI1
aI4
aI4
aI4
aI1
aI1
aI0
aI0
aa(lp105
I0
aI0
aI2
aI2
aI3
aI0
aI0
aI0
aI1
aI4
aI4
aI4
aI1
aI1
aI0
aI0
aa(lp106
I0
aI0
aI2
aI2
aI3
aI0
aI0
aI0
aI1
aI4
aI4
aI4
aI2
aI2
aI0
aI0
aa(lp107
I0
aI0
aI2
aI2
aI3
aI0
aI0
aI0
aI1
aI4
aI4
aI4
aI2
aI2
aI0
aI0
aa(lp108
I2
aI2
aI2
aI2
aI0
aI0
aI0
aI0
aI0
aI3
aI4
aI4
aI1
aI1
aI0
aI0
aa(lp109
I2
aI2
aI2
aI2
aI0
aI0
aI0
aI0
aI0
aI3
aI4
aI4
aI1
aI1
aI0
aI0
aa(lp110
I4
aI4
aI4
aI4
aI4
aI4
aI4
aI4
aI4
aI4
aI4
aI4
aI4
aI4
aI4
aI4
aa(lp111
I4
aI4
aI4
aI4
aI4
aI4
aI4
aI4
aI4
aI4
aI4
aI4
aI4
aI4
aI4
aI4
aa(lp112
I4
aI4
aI4
aI4
aI4
aI4
aI4
aI4
aI4
aI4
aI4
aI4
aI4
aI4
aI4
aI4
aa(lp113
I0
aI0
aI0
aI0
aI0
aI0
aI0
aI0
aI1
aI4
aI4
aI3
aI0
aI0
aI0
aI0
aa(lp114
I0
aI0
aI0
aI0
aI0
aI0
aI0
aI0
aI1
aI4
aI4
aI3
aI0
aI0
aI0
aI0
aa(lp115
I0
aI0
aI0
aI0
aI0
aI0
aI0
aI0
aI1
aI4
aI4
aI4
aI1
aI1
aI0
aI0
aa(lp116
I0
aI0
aI0
aI0
aI0
aI0
aI0
aI0
aI1
aI4
aI4
aI4
aI1
aI1
aI0
aI0
aasS'7'
(lp117
(lp118
I3
aI3
aI3
aI3
aI3
aI3
aI3
aI3
aI3
aI3
aI3
aI3
aI3
aI3
aI2
aI2
aa(lp119
I3
aI3
aI3
aI3
aI3
aI3
aI3
aI3
aI3
aI3
aI3
aI3
aI3
aI3
aI2
aI2
aa(lp120
I3
aI3
aI3
aI3
aI3
aI3
aI3
aI3
aI3
aI3
aI3
aI3
aI3
aI3
aI2
aI2
aa(lp121
I3
aI3
aI3
aI3
aI3
aI3
aI3
aI3
aI3
aI3
aI3
aI3
aI3
aI3
aI2
aI2
aa(lp122
I0
aI0
aI0
aI0
aI0
aI0
aI0
aI0
aI0
aI2
aI2
aI3
aI3
aI3
aI0
aI0
aa(lp123
I0
aI0
aI0
aI0
aI0
aI0
aI0
aI0
aI0
aI2
aI2
aI3
aI3
aI3
aI0
aI0
aa(lp124
I0
aI0
aI0
aI0
aI0
aI0
aI0
aI0
aI0
aI3
aI3
aI3
aI3
aI3
aI0
aI0
aa(lp125
I0
aI0
aI0
aI0
aI0
aI0
aI0
aI2
aI2
aI3
aI3
aI1
aI1
aI1
aI0
aI0
aa(lp126
I0
aI0
aI0
aI0
aI0
aI0
aI0
aI2
aI2
aI3
aI3
aI1
aI1
aI1
aI0
aI0
aa(lp127
I0
aI0
aI0
aI0
aI0
aI0
aI0
aI3
aI3
aI3
aI3
aI0
aI0
aI0
aI0
aI0
aa(lp128
I0
aI0
aI0
aI0
aI0
aI0
aI0
aI3
aI3
aI3
aI3
aI0
aI0
aI0
aI0
aI0
aa(lp129
I0
aI0
aI0
aI0
aI0
aI2
aI2
aI3
aI3
aI2
aI2
aI0
aI0
aI0
aI0
aI0
aa(lp130
I0
aI0
aI0
aI0
aI0
aI2
aI2
aI3
aI3
aI2
aI2
aI0
aI0
aI0
aI0
aI0
aa(lp131
I0
aI0
aI0
aI0
aI0
aI0
aI0
aI2
aI2
aI0
aI0
aI0
aI0
aI0
aI0
aI0
aa(lp132
I0
aI0
aI0
aI0
aI0
aI0
aI0
aI2
aI2
aI0
aI0
aI0
aI0
aI0
aI0
aI0
aa(lp133
I0
aI0
aI0
aI0
aI0
aI3
aI3
aI3
aI3
aI0
aI0
aI0
aI0
aI0
aI0
aI0
aa(lp134
I0
aI0
aI0
aI0
aI0
aI3
aI3
aI3
aI3
aI0
aI0
aI0
aI0
aI0
aI0
aI0
aa(lp135
I0
aI0
aI2
aI2
aI2
aI3
aI3
aI2
aI2
aI0
aI0
aI0
aI0
aI0
aI0
aI0
aa(lp136
I0
aI0
aI2
aI2
aI2
aI3
aI3
aI0
aI0
aI0
aI0
aI0
aI0
aI0
aI0
aI0
aa(lp137
I0
aI0
aI2
aI2
aI2
aI3
aI3
aI0
aI0
aI0
aI0
aI0
aI0
aI0
aI0
aI0
aa(lp138
I0
aI0
aI1
aI1
aI1
aI3
aI3
aI1
aI1
aI0
aI0
aI0
aI0
aI0
aI0
aI0
aa(lp139
I0
aI0
aI1
aI1
aI1
aI3
aI3
aI1
aI1
aI0
aI0
aI0
aI0
aI0
aI0
aI0
aasS'6'
(lp140
(lp141
I0
aI0
aI0
aI0
aI0
aI1
aI1
aI1
aI1
aI1
aI1
aI0
aI0
aI0
aI0
aI0
aa(lp142
I0
aI0
aI0
aI0
aI0
aI1
aI1
aI1
aI1
aI1
aI1
aI0
aI0
aI0
aI0
aI0
aa(lp143
I0
aI0
aI1
aI1
aI1
aI1
aI1
aI1
aI1
aI1
aI1
aI1
aI1
aI1
aI0
aI0
aa(lp144
I0
aI0
aI1
aI1
aI1
aI1
aI1
aI1
aI1
aI1
aI1
aI1
aI1
aI1
aI0
aI0
aa(lp145
I1
aI1
aI1
aI1
aI1
aI0
aI0
aI0
aI0
aI0
aI0
aI1
aI1
aI1
aI1
aI1
aa(lp146
I1
aI1
aI1
aI1
aI1
aI0
aI0
aI0
aI0
aI0
aI0
aI1
aI1
aI1
aI1
aI1
aa(lp147
I1
aI1
aI1
aI1
aI1
aI0
aI0
aI0
aI0
aI0
aI0
aI0
aI0
aI0
aI0
aI0
aa(lp148
I1
aI1
aI1
aI1
aI1
aI0
aI0
aI1
aI1
aI1
aI1
aI0
aI0
aI0
aI0
aI0
aa(lp149
I1
aI1
aI1
aI1
aI1
aI0
aI0
aI1
aI1
aI1
aI1
aI0
aI0
aI0
aI0
aI0
aa(lp150
I1
aI1
aI1
aI1
aI1
aI1
aI1
aI1
aI1
aI1
aI1
aI1
aI1
aI1
aI0
aI0
aa(lp151
I1
aI1
aI1
aI1
aI1
aI1
aI1
aI1
aI1
aI1
aI1
aI1
aI1
aI1
aI0
aI0
aa(lp152
I1
aI1
aI1
aI1
aI1
aI0
aI0
aI0
aI0
aI0
aI0
aI1
aI1
aI1
aI1
aI1
aa(lp153
I1
aI1
aI1
aI1
aI1
aI0
aI0
aI0
aI0
aI0
aI0
aI1
aI1
aI1
aI1
aI1
aa(lp154
I1
aI1
aI1
aI1
aI1
aI0
aI0
aI0
aI0
aI0
aI0
aI1
aI1
aI1
aI1
aI1
aa(lp155
I1
aI1
aI1
aI1
aI1
aI0
aI0
aI0
aI0
aI0
aI0
aI1
aI1
aI1
aI1
aI1
aa(lp156
I1
aI1
aI1
aI1
aI1
aI0
aI0
aI0
aI0
aI0
aI0
aI1
aI1
aI1
aI1
aI1
aa(lp157
I1
aI1
aI1
aI1
aI1
aI0
aI0
aI0
aI0
aI0
aI0
aI1
aI1
aI1
aI1
aI1
aa(lp158
I1
aI1
aI1
aI1
aI1
aI0
aI0
aI0
aI0
aI0
aI0
aI1
aI1
aI1
aI1
aI1
aa(lp159
I0
aI0
aI1
aI1
aI1
aI1
aI1
aI1
aI1
aI1
aI1
aI1
aI1
aI1
aI0
aI0
aa(lp160
I0
aI0
aI1
aI1
aI1
aI1
aI1
aI1
aI1
aI1
aI1
aI1
aI1
aI1
aI0
aI0
aa(lp161
I0
aI0
aI0
aI0
aI0
aI1
aI1
aI1
aI1
aI1
aI1
aI0
aI0
aI0
aI0
aI0
aa(lp162
I0
aI0
aI0
aI0
aI0
aI1
aI1
aI1
aI1
aI1
aI1
aI0
aI0
aI0
aI0
aI0
aasS'9'
(lp163
(lp164
I0
aI0
aI1
aI1
aI2
aI3
aI3
aI3
aI3
aI3
aI3
aI1
aI0
aI0
aI0
aI0
aa(lp165
I0
aI0
aI1
aI1
aI2
aI3
aI3
aI3
aI3
aI3
aI3
aI1
aI0
aI0
aI0
aI0
aa(lp166
I2
aI2
aI3
aI3
aI3
aI3
aI3
aI3
aI3
aI3
aI3
aI3
aI3
aI3
aI0
aI0
aa(lp167
I2
aI2
aI3
aI3
aI3
aI3
aI3
aI3
aI3
aI3
aI3
aI3
aI3
aI3
aI0
aI0
aa(lp168
I3
aI3
aI3
aI3
aI3
aI1
aI0
aI0
aI1
aI2
aI2
aI3
aI3
aI3
aI1
aI1
aa(lp169
I3
aI3
aI3
aI3
aI3
aI1
aI0
aI0
aI1
aI2
aI2
aI3
aI3
aI3
aI1
aI1
aa(lp170
I3
aI3
aI3
aI3
aI2
aI0
aI0
aI0
aI0
aI0
aI1
aI3
aI3
aI3
aI3
aI3
aa(lp171
I3
aI3
aI3
aI3
aI2
aI0
aI0
aI0
aI0
aI0
aI0
aI2
aI3
aI3
aI2
aI2
aa(lp172
I3
aI3
aI3
aI3
aI2
aI0
aI0
aI0
aI0
aI0
aI0
aI2
aI3
aI3
aI2
aI2
aa(lp173
I3
aI3
aI3
aI3
aI2
aI0
aI0
aI0
aI0
aI0
aI1
aI3
aI3
aI3
aI2
aI2
aa(lp174
I3
aI3
aI3
aI3
aI2
aI0
aI0
aI0
aI0
aI0
aI1
aI3
aI3
aI3
aI2
aI2
aa(lp175
I3
aI3
aI3
aI3
aI3
aI3
aI3
aI3
aI3
aI3
aI3
aI3
aI3
aI3
aI1
aI1
aa(lp176
I3
aI3
aI3
aI3
aI3
aI3
aI3
aI3
aI3
aI3
aI3
aI3
aI3
aI3
aI1
aI1
aa(lp177
I0
aI0
aI3
aI3
aI3
aI3
aI3
aI3
aI2
aI1
aI1
aI0
aI1
aI1
aI2
aI2
aa(lp178
I0
aI0
aI3
aI3
aI3
aI3
aI3
aI3
aI2
aI1
aI1
aI0
aI1
aI1
aI2
aI2
aa(lp179
I0
aI0
aI0
aI0
aI0
aI0
aI0
aI0
aI0
aI0
aI1
aI2
aI2
aI2
aI3
aI3
aa(lp180
I0
aI0
aI0
aI0
aI0
aI0
aI0
aI0
aI0
aI0
aI1
aI2
aI2
aI2
aI3
aI3
aa(lp181
I3
aI3
aI3
aI3
aI2
aI0
aI0
aI0
aI0
aI0
aI1
aI3
aI3
aI3
aI2
aI2
aa(lp182
I3
aI3
aI3
aI3
aI3
aI3
aI3
aI3
aI3
aI3
aI3
aI3
aI2
aI2
aI0
aI0
aa(lp183
I3
aI3
aI3
aI3
aI3
aI3
aI3
aI3
aI3
aI3
aI3
aI3
aI2
aI2
aI0
aI0
aa(lp184
I0
aI0
aI2
aI2
aI2
aI3
aI3
aI3
aI3
aI3
aI3
aI1
aI0
aI0
aI0
aI0
aa(lp185
I0
aI0
aI2
aI2
aI2
aI3
aI3
aI3
aI3
aI3
aI3
aI1
aI0
aI0
aI0
aI0
aasS'8'
(lp186
(lp187
I0
aI0
aI1
aI1
aI1
aI2
aI2
aI2
aI2
aI2
aI2
aI1
aI1
aI1
aI0
aI0
aa(lp188
I0
aI0
aI1
aI1
aI1
aI2
aI2
aI2
aI2
aI2
aI2
aI1
aI1
aI1
aI0
aI0
aa(lp189
I1
aI1
aI2
aI2
aI2
aI2
aI2
aI2
aI2
aI2
aI2
aI2
aI2
aI2
aI1
aI1
aa(lp190
I1
aI1
aI2
aI2
aI2
aI2
aI2
aI2
aI2
aI2
aI2
aI2
aI2
aI2
aI1
aI1
aa(lp191
I2
aI2
aI2
aI2
aI2
aI1
aI1
aI0
aI0
aI0
aI0
aI2
aI2
aI2
aI2
aI2
aa(lp192
I2
aI2
aI2
aI2
aI2
aI1
aI1
aI0
aI0
aI0
aI0
aI2
aI2
aI2
aI2
aI2
aa(lp193
I2
aI2
aI2
aI2
aI2
aI0
aI0
aI0
aI0
aI0
aI0
aI2
aI2
aI2
aI2
aI2
aa(lp194
I2
aI2
aI2
aI2
aI2
aI0
aI0
aI0
aI0
aI0
aI0
aI2
aI2
aI2
aI1
aI1
aa(lp195
I2
aI2
aI2
aI2
aI2
aI0
aI0
aI0
aI0
aI0
aI0
aI2
aI2
aI2
aI1
aI1
aa(lp196
I0
aI0
aI2
aI2
aI2
aI2
aI2
aI2
aI2
aI2
aI2
aI2
aI2
aI2
aI0
aI0
aa(lp197
I0
aI0
aI2
aI2
aI2
aI2
aI2
aI2
aI2
aI2
aI2
aI2
aI2
aI2
aI0
aI0
aa(lp198
I0
aI0
aI2
aI2
aI2
aI2
aI2
aI2
aI2
aI2
aI2
aI2
aI2
aI2
aI0
aI0
aa(lp199
I0
aI0
aI2
aI2
aI2
aI2
aI2
aI2
aI2
aI2
aI2
aI2
aI2
aI2
aI0
aI0
aa(lp200
I2
aI2
aI2
aI2
aI2
aI0
aI0
aI0
aI0
aI0
aI0
aI2
aI2
aI2
aI2
aI2
aa(lp201
I2
aI2
aI2
aI2
aI2
aI0
aI0
aI0
aI0
aI0
aI0
aI2
aI2
aI2
aI2
aI2
aa(lp202
I2
aI2
aI2
aI2
aI2
aI0
aI0
aI0
aI0
aI0
aI0
aI1
aI1
aI1
aI1
aI1
aa(lp203
I2
aI2
aI2
aI2
aI2
aI0
aI0
aI0
aI0
aI0
aI0
aI1
aI1
aI1
aI1
aI1
aa(lp204
I0
aI0
aI2
aI2
aI2
aI0
aI0
aI0
aI0
aI0
aI0
aI2
aI2
aI2
aI2
aI2
aa(lp205
I2
aI2
aI2
aI2
aI2
aI2
aI2
aI2
aI2
aI2
aI2
aI2
aI2
aI2
aI2
aI2
aa(lp206
I2
aI2
aI2
aI2
aI2
aI2
aI2
aI2
aI2
aI2
aI2
aI2
aI2
aI2
aI2
aI2
aa(lp207
I0
aI0
aI1
aI1
aI1
aI2
aI2
aI2
aI2
aI2
aI2
aI1
aI1
aI1
aI0
aI0
aa(lp208
I0
aI0
aI1
aI1
aI1
aI2
aI2
aI2
aI2
aI2
aI2
aI1
aI1
aI1
aI0
aI0
aas.